target datalayout = "e-m:e-p270:32:32-p271:32:32-p272:64:64-i64:64-i128:128-f80:128-n8:16:32:64-S128"
target triple = "x86_64-pc-linux-gnu"

%struct.wtap = type { ptr, ptr, i8, i32, i32, ptr, ptr, ptr, i32, ptr, ptr, ptr, ptr, ptr, ptr, ptr, ptr, ptr, ptr, i32, i32, ptr, ptr, ptr, ptr }

@vms_file_type_subtype = internal global i32 -1, align 4
@.str.1 = private unnamed_addr constant [11 x i8] c"TCPIPtrace\00", align 1
@.str.2 = private unnamed_addr constant [9 x i8] c"TCPtrace\00", align 1
@.str.3 = private unnamed_addr constant [15 x i8] c"INTERnet trace\00", align 1

; Function Attrs: null_pointer_is_valid sspstrong uwtable
define internal zeroext i1 @vms_check_file_type(ptr noundef %0, ptr noundef %1, ptr noundef %2) #0 {
  %4 = alloca i1, align 1
  %5 = alloca ptr, align 8
  %6 = alloca ptr, align 8
  %7 = alloca ptr, align 8
  %8 = alloca [240 x i8], align 16
  %9 = alloca i32, align 4
  %10 = alloca i32, align 4
  %11 = alloca i64, align 8
  %12 = alloca i32, align 4
  store ptr %0, ptr %5, align 8
  store ptr %1, ptr %6, align 8
  store ptr %2, ptr %7, align 8
  call void @llvm.lifetime.start.p0(i64 240, ptr %8) #9
  call void @llvm.lifetime.start.p0(i64 4, ptr %9) #9
  call void @llvm.lifetime.start.p0(i64 4, ptr %10) #9
  call void @llvm.lifetime.start.p0(i64 8, ptr %11) #9
  %13 = getelementptr [240 x i8], ptr %8, i64 0, i64 239
  store i8 0, ptr %13, align 1
  store i32 0, ptr %10, align 4
  br label %14

14:                                               ; preds = %84, %3
  %15 = load i32, ptr %10, align 4
  %16 = icmp ult i32 %15, 200
  br i1 %16, label %17, label %87

17:                                               ; preds = %14
  %18 = load ptr, ptr %5, align 8
  %19 = getelementptr inbounds nuw %struct.wtap, ptr %18, i32 0, i32 0
  %20 = load ptr, ptr %19, align 8
  %21 = call i64 @file_tell(ptr noundef %20)
  store i64 %21, ptr %11, align 8
  %22 = load i64, ptr %11, align 8
  %23 = icmp eq i64 %22, -1
  br i1 %23, label %24, label %31

24:                                               ; preds = %17
  %25 = load ptr, ptr %5, align 8
  %26 = getelementptr inbounds nuw %struct.wtap, ptr %25, i32 0, i32 0
  %27 = load ptr, ptr %26, align 8
  %28 = load ptr, ptr %7, align 8
  %29 = call i32 @file_error(ptr noundef %27, ptr noundef %28)
  %30 = load ptr, ptr %6, align 8
  store i32 %29, ptr %30, align 4
  store i1 false, ptr %4, align 1
  store i32 1, ptr %12, align 4
  br label %89

31:                                               ; preds = %17
  %32 = getelementptr inbounds [240 x i8], ptr %8, i64 0, i64 0
  %33 = load ptr, ptr %5, align 8
  %34 = getelementptr inbounds nuw %struct.wtap, ptr %33, i32 0, i32 0
  %35 = load ptr, ptr %34, align 8
  %36 = call ptr @file_gets(ptr noundef %32, i32 noundef 240, ptr noundef %35)
  %37 = icmp eq ptr %36, null
  br i1 %37, label %38, label %45

38:                                               ; preds = %31
  %39 = load ptr, ptr %5, align 8
  %40 = getelementptr inbounds nuw %struct.wtap, ptr %39, i32 0, i32 0
  %41 = load ptr, ptr %40, align 8
  %42 = load ptr, ptr %7, align 8
  %43 = call i32 @file_error(ptr noundef %41, ptr noundef %42)
  %44 = load ptr, ptr %6, align 8
  store i32 %43, ptr %44, align 4
  store i1 false, ptr %4, align 1
  store i32 1, ptr %12, align 4
  br label %89

45:                                               ; preds = %31
  %46 = getelementptr inbounds [240 x i8], ptr %8, i64 0, i64 0
  %47 = call i64 @strlen(ptr noundef %46) #10
  %48 = trunc i64 %47 to i32
  store i32 %48, ptr %9, align 4
  %49 = load i32, ptr %9, align 4
  %50 = zext i32 %49 to i64
  %51 = icmp ult i64 %50, 10
  br i1 %51, label %60, label %52

52:                                               ; preds = %45
  %53 = load i32, ptr %9, align 4
  %54 = zext i32 %53 to i64
  %55 = icmp ult i64 %54, 8
  br i1 %55, label %60, label %56

56:                                               ; preds = %52
  %57 = load i32, ptr %9, align 4
  %58 = zext i32 %57 to i64
  %59 = icmp ult i64 %58, 14
  br i1 %59, label %60, label %61

60:                                               ; preds = %56, %52, %45
  br label %84

61:                                               ; preds = %56
  %62 = getelementptr inbounds [240 x i8], ptr %8, i64 0, i64 0
  %63 = call ptr @strstr(ptr noundef %62, ptr noundef @.str.1) #10
  %64 = icmp ne ptr %63, null
  br i1 %64, label %73, label %65

65:                                               ; preds = %61
  %66 = getelementptr inbounds [240 x i8], ptr %8, i64 0, i64 0
  %67 = call ptr @strstr(ptr noundef %66, ptr noundef @.str.2) #10
  %68 = icmp ne ptr %67, null
  br i1 %68, label %73, label %69

69:                                               ; preds = %65
  %70 = getelementptr inbounds [240 x i8], ptr %8, i64 0, i64 0
  %71 = call ptr @strstr(ptr noundef %70, ptr noundef @.str.3) #10
  %72 = icmp ne ptr %71, null
  br i1 %72, label %73, label %83

73:                                               ; preds = %69, %65, %61
  %74 = load ptr, ptr %5, align 8
  %75 = getelementptr inbounds nuw %struct.wtap, ptr %74, i32 0, i32 0
  %76 = load ptr, ptr %75, align 8
  %77 = load i64, ptr %11, align 8
  %78 = load ptr, ptr %6, align 8
  %79 = call i64 @file_seek(ptr noundef %76, i64 noundef %77, i32 noundef 0, ptr noundef %78)
  %80 = icmp eq i64 %79, -1
  br i1 %80, label %81, label %82

81:                                               ; preds = %73
  store i1 false, ptr %4, align 1
  store i32 1, ptr %12, align 4
  br label %89

82:                                               ; preds = %73
  store i1 true, ptr %4, align 1
  store i32 1, ptr %12, align 4
  br label %89

83:                                               ; preds = %69
  br label %84

84:                                               ; preds = %83, %60
  %85 = load i32, ptr %10, align 4
  %86 = add i32 %85, 1
  store i32 %86, ptr %10, align 4
  br label %14, !llvm.loop !6

87:                                               ; preds = %14
  %88 = load ptr, ptr %6, align 8
  store i32 0, ptr %88, align 4
  store i1 false, ptr %4, align 1
  store i32 1, ptr %12, align 4
  br label %89

89:                                               ; preds = %87, %82, %81, %38, %24
  call void @llvm.lifetime.end.p0(i64 8, ptr %11) #9
  call void @llvm.lifetime.end.p0(i64 4, ptr %10) #9
  call void @llvm.lifetime.end.p0(i64 4, ptr %9) #9
  call void @llvm.lifetime.end.p0(i64 240, ptr %8) #9
  %90 = load i1, ptr %4, align 1
  ret i1 %90
}

; Function Attrs: null_pointer_is_valid sspstrong uwtable
define hidden i32 @vms_open(ptr noundef %0, ptr noundef %1, ptr noundef %2) #0 {
  %4 = alloca i32, align 4
  %5 = alloca ptr, align 8
  %6 = alloca ptr, align 8
  %7 = alloca ptr, align 8
  store ptr %0, ptr %5, align 8
  store ptr %1, ptr %6, align 8
  store ptr %2, ptr %7, align 8
  %8 = load ptr, ptr %5, align 8
  %9 = load ptr, ptr %6, align 8
  %10 = load ptr, ptr %7, align 8
  %11 = call zeroext i1 @vms_check_file_type(ptr noundef %8, ptr noundef %9, ptr noundef %10)
  br i1 %11, label %22, label %12

12:                                               ; preds = %3
  %13 = load ptr, ptr %6, align 8
  %14 = load i32, ptr %13, align 4
  %15 = icmp ne i32 %14, 0
  br i1 %15, label %16, label %21

16:                                               ; preds = %12
  %17 = load ptr, ptr %6, align 8
  %18 = load i32, ptr %17, align 4
  %19 = icmp ne i32 %18, -12
  br i1 %19, label %20, label %21

20:                                               ; preds = %16
  store i32 -1, ptr %4, align 4
  br label %37

21:                                               ; preds = %16, %12
  store i32 0, ptr %4, align 4
  br label %37

22:                                               ; preds = %3
  %23 = load ptr, ptr %5, align 8
  %24 = getelementptr inbounds nuw %struct.wtap, ptr %23, i32 0, i32 19
  store i32 7, ptr %24, align 8
  %25 = load i32, ptr @vms_file_type_subtype, align 4
  %26 = load ptr, ptr %5, align 8
  %27 = getelementptr inbounds nuw %struct.wtap, ptr %26, i32 0, i32 3
  store i32 %25, ptr %27, align 4
  %28 = load ptr, ptr %5, align 8
  %29 = getelementptr inbounds nuw %struct.wtap, ptr %28, i32 0, i32 4
  store i32 0, ptr %29, align 8
  %30 = load ptr, ptr %5, align 8
  %31 = getelementptr inbounds nuw %struct.wtap, ptr %30, i32 0, i32 15
  store ptr @vms_read, ptr %31, align 8
  %32 = load ptr, ptr %5, align 8
  %33 = getelementptr inbounds nuw %struct.wtap, ptr %32, i32 0, i32 16
  store ptr @vms_seek_read, ptr %33, align 8
  %34 = load ptr, ptr %5, align 8
  %35 = getelementptr inbounds nuw %struct.wtap, ptr %34, i32 0, i32 20
  store i32 2, ptr %35, align 4
  %36 = load ptr, ptr %5, align 8
  call void @wtap_add_generated_idb(ptr noundef %36)
  store i32 1, ptr %4, align 4
  br label %37

37:                                               ; preds = %22, %21, %20
  %38 = load i32, ptr %4, align 4
  ret i32 %38
}