; Function Attrs: null_pointer_is_valid sspstrong uwtable
define hidden range(i32 -1, 2) i32 @vms_open(ptr noundef %0, ptr noundef %1, ptr noundef %2) local_unnamed_addr #0 {
  %4 = alloca [240 x i8], align 16
  call void @llvm.lifetime.start.p0(i64 240, ptr nonnull %4) #7
  %5 = getelementptr inbounds nuw i8, ptr %4, i64 239
  store i8 0, ptr %5, align 1
  br label %6

6:                                                ; preds = %26, %3
  %.02329.i = phi i32 [ 0, %3 ], [ %27, %26 ]
  %7 = load ptr, ptr %0, align 8
  %8 = call i64 @file_tell(ptr noundef %7)
  %9 = icmp eq i64 %8, -1
  %10 = load ptr, ptr %0, align 8
  br i1 %9, label %vms_check_file_type.exit.thread.sink.split, label %11

11:                                               ; preds = %6
  %12 = call ptr @file_gets(ptr noundef nonnull %4, i32 noundef 240, ptr noundef %10)
  %13 = icmp eq ptr %12, null
  br i1 %13, label %14, label %16

14:                                               ; preds = %11
  %15 = load ptr, ptr %0, align 8
  br label %vms_check_file_type.exit.thread.sink.split

16:                                               ; preds = %11
  %17 = call i64 @strlen(ptr noundef nonnull dereferenceable(1) %4) #8
  %18 = and i64 %17, 4294967294
  %19 = icmp samesign ult i64 %18, 14
  br i1 %19, label %26, label %20

20:                                               ; preds = %16
  %21 = call ptr @strstr(ptr noundef nonnull dereferenceable(1) %4, ptr noundef nonnull dereferenceable(1) @.str.1) #8
  %.not.i = icmp eq ptr %21, null
  br i1 %.not.i, label %22, label %vms_check_file_type.exit

22:                                               ; preds = %20
  %23 = call ptr @strstr(ptr noundef nonnull dereferenceable(1) %4, ptr noundef nonnull dereferenceable(1) @.str.2) #8
  %.not25.i = icmp eq ptr %23, null
  br i1 %.not25.i, label %24, label %vms_check_file_type.exit

24:                                               ; preds = %22
  %25 = call ptr @strstr(ptr noundef nonnull dereferenceable(1) %4, ptr noundef nonnull dereferenceable(1) @.str.3) #8
  %.not26.i = icmp eq ptr %25, null
  br i1 %.not26.i, label %26, label %vms_check_file_type.exit

26:                                               ; preds = %24, %16
  %27 = add nuw nsw i32 %.02329.i, 1
  %exitcond.not.i = icmp eq i32 %27, 200
  br i1 %exitcond.not.i, label %vms_check_file_type.exit.thread, label %6, !llvm.loop !6

vms_check_file_type.exit.thread.sink.split:       ; preds = %6, %14
  %.lcssa.sink = phi ptr [ %15, %14 ], [ %10, %6 ]
  %28 = call i32 @file_error(ptr noundef %.lcssa.sink, ptr noundef %2)
  br label %vms_check_file_type.exit.thread

vms_check_file_type.exit.thread:                  ; preds = %26, %vms_check_file_type.exit.thread.sink.split
  %.sink = phi i32 [ %28, %vms_check_file_type.exit.thread.sink.split ], [ 0, %26 ]
  store i32 %.sink, ptr %1, align 4
  call void @llvm.lifetime.end.p0(i64 240, ptr nonnull %4) #7
  br label %31

vms_check_file_type.exit:                         ; preds = %20, %22, %24
  %29 = load ptr, ptr %0, align 8
  %30 = call i64 @file_seek(ptr noundef %29, i64 noundef %8, i32 noundef 0, ptr noundef %1)
  %.not = icmp eq i64 %30, -1
  call void @llvm.lifetime.end.p0(i64 240, ptr nonnull %4) #7
  br i1 %.not, label %vms_check_file_type.exit._crit_edge, label %34

vms_check_file_type.exit._crit_edge:              ; preds = %vms_check_file_type.exit
  %.pre = load i32, ptr %1, align 4
  br label %31

31:                                               ; preds = %vms_check_file_type.exit._crit_edge, %vms_check_file_type.exit.thread
  %32 = phi i32 [ %.pre, %vms_check_file_type.exit._crit_edge ], [ %.sink, %vms_check_file_type.exit.thread ]
  %switch.selectcmp.case1 = icmp ne i32 %32, 0
  %switch.selectcmp.case2 = icmp ne i32 %32, -12
  %switch.selectcmp.not = and i1 %switch.selectcmp.case1, %switch.selectcmp.case2
  %33 = sext i1 %switch.selectcmp.not to i32
  br label %42

34:                                               ; preds = %vms_check_file_type.exit
  %35 = getelementptr inbounds nuw i8, ptr %0, i64 144
  store i32 7, ptr %35, align 8
  %36 = load i32, ptr @vms_file_type_subtype, align 4
  %37 = getelementptr inbounds nuw i8, ptr %0, i64 20
  store i32 %36, ptr %37, align 4
  %38 = getelementptr inbounds nuw i8, ptr %0, i64 24
  store i32 0, ptr %38, align 8
  %39 = getelementptr inbounds nuw i8, ptr %0, i64 112
  store ptr @vms_read, ptr %39, align 8
  %40 = getelementptr inbounds nuw i8, ptr %0, i64 120
  store ptr @vms_seek_read, ptr %40, align 8
  %41 = getelementptr inbounds nuw i8, ptr %0, i64 148
  store i32 2, ptr %41, align 4
  call void @wtap_add_generated_idb(ptr noundef %0)
  br label %42

42:                                               ; preds = %31, %34
  %.0 = phi i32 [ 1, %34 ], [ %33, %31 ]
  ret i32 %.0
}